target datalayout = "e-m:e-p270:32:32-p271:32:32-p272:64:64-i64:64-i128:128-f80:128-n8:16:32:64-S128"
target triple = "x86_64-pc-linux-gnu"

%"class.std::__cxx11::basic_string" = type { %"struct.std::__cxx11::basic_string<char>::_Alloc_hider", i64, %union.anon }
%"struct.std::__cxx11::basic_string<char>::_Alloc_hider" = type { ptr }
%union.anon = type { i64, [8 x i8] }
%"class.rocksdb::Slice" = type { ptr, i64 }
%"struct.rocksdb::WriteBatchIndexEntry" = type { i64, i32, i32, i8, i8, i64, i64, ptr }
%"class.rocksdb::WriteBatchEntryComparator" = type { ptr, %"class.std::vector.47", ptr }
%"class.std::vector.47" = type { %"struct.std::_Vector_base.48" }
%"struct.std::_Vector_base.48" = type { %"struct.std::_Vector_base<const rocksdb::Comparator *, std::allocator<const rocksdb::Comparator *>>::_Vector_impl" }
%"struct.std::_Vector_base<const rocksdb::Comparator *, std::allocator<const rocksdb::Comparator *>>::_Vector_impl" = type { %"struct.std::_Vector_base<const rocksdb::Comparator *, std::allocator<const rocksdb::Comparator *>>::_Vector_impl_data" }
%"struct.std::_Vector_base<const rocksdb::Comparator *, std::allocator<const rocksdb::Comparator *>>::_Vector_impl_data" = type { ptr, ptr, ptr }
%"class.rocksdb::WriteBatch" = type { %"class.rocksdb::WriteBatchBase", %"class.std::unique_ptr.52", %"struct.rocksdb::SavePoint", i8, i8, i8, %"struct.std::atomic", i64, %"class.std::unique_ptr.60", i64, i8, %"class.std::unordered_map", %"class.std::__cxx11::basic_string" }
%"class.rocksdb::WriteBatchBase" = type { ptr }
%"class.std::unique_ptr.52" = type { %"struct.std::__uniq_ptr_data.53" }
%"struct.std::__uniq_ptr_data.53" = type { %"class.std::__uniq_ptr_impl.54" }
%"class.std::__uniq_ptr_impl.54" = type { %"class.std::tuple.55" }
%"class.std::tuple.55" = type { %"struct.std::_Tuple_impl.56" }
%"struct.std::_Tuple_impl.56" = type { %"struct.std::_Head_base.59" }
%"struct.std::_Head_base.59" = type { ptr }
%"struct.rocksdb::SavePoint" = type { i64, i32, i32 }
%"struct.std::atomic" = type { %"struct.std::__atomic_base" }
%"struct.std::__atomic_base" = type { i32 }
%"class.std::unique_ptr.60" = type { %"struct.std::__uniq_ptr_data.61" }
%"struct.std::__uniq_ptr_data.61" = type { %"class.std::__uniq_ptr_impl.62" }
%"class.std::__uniq_ptr_impl.62" = type { %"class.std::tuple.63" }
%"class.std::tuple.63" = type { %"struct.std::_Tuple_impl.64" }
%"struct.std::_Tuple_impl.64" = type { %"struct.std::_Head_base.67" }
%"struct.std::_Head_base.67" = type { ptr }
%"class.std::unordered_map" = type { %"class.std::_Hashtable" }
%"class.std::_Hashtable" = type { ptr, i64, %"struct.std::__detail::_Hash_node_base", i64, %"struct.std::__detail::_Prime_rehash_policy", ptr }
%"struct.std::__detail::_Hash_node_base" = type { ptr }
%"struct.std::__detail::_Prime_rehash_policy" = type { float, i64 }

@.str = private unnamed_addr constant [1 x i8] zeroinitializer, align 1

; Function Attrs: mustprogress nounwind uwtable
define linkonce_odr noundef nonnull align 8 dereferenceable(8) ptr @_ZNKSt6vectorIPKN7rocksdb10ComparatorESaIS3_EEixEm(ptr noundef nonnull align 8 dereferenceable(24) %0, i64 noundef %1) #3 comdat align 2 {
  %3 = alloca ptr, align 8
  %4 = alloca i64, align 8
  store ptr %0, ptr %3, align 8, !tbaa !279
  store i64 %1, ptr %4, align 8, !tbaa !4
  %5 = load ptr, ptr %3, align 8
  %6 = getelementptr inbounds nuw %"struct.std::_Vector_base.48", ptr %5, i32 0, i32 0
  %7 = getelementptr inbounds nuw %"struct.std::_Vector_base<const rocksdb::Comparator *, std::allocator<const rocksdb::Comparator *>>::_Vector_impl_data", ptr %6, i32 0, i32 0
  %8 = load ptr, ptr %7, align 8, !tbaa !282
  %9 = load i64, ptr %4, align 8, !tbaa !4
  %10 = getelementptr inbounds nuw ptr, ptr %8, i64 %9
  ret ptr %10
}

; Function Attrs: mustprogress nounwind uwtable
define linkonce_odr noundef i64 @_ZNKSt6vectorIPKN7rocksdb10ComparatorESaIS3_EE4sizeEv(ptr noundef nonnull align 8 dereferenceable(24) %0) #3 comdat align 2 {
  %2 = alloca ptr, align 8
  store ptr %0, ptr %2, align 8, !tbaa !279
  %3 = load ptr, ptr %2, align 8
  %4 = getelementptr inbounds nuw %"struct.std::_Vector_base.48", ptr %3, i32 0, i32 0
  %5 = getelementptr inbounds nuw %"struct.std::_Vector_base<const rocksdb::Comparator *, std::allocator<const rocksdb::Comparator *>>::_Vector_impl_data", ptr %4, i32 0, i32 1
  %6 = load ptr, ptr %5, align 8, !tbaa !281
  %7 = getelementptr inbounds nuw %"struct.std::_Vector_base.48", ptr %3, i32 0, i32 0
  %8 = getelementptr inbounds nuw %"struct.std::_Vector_base<const rocksdb::Comparator *, std::allocator<const rocksdb::Comparator *>>::_Vector_impl_data", ptr %7, i32 0, i32 0
  %9 = load ptr, ptr %8, align 8, !tbaa !282
  %10 = ptrtoint ptr %6 to i64
  %11 = ptrtoint ptr %9 to i64
  %12 = sub i64 %10, %11
  %13 = sdiv exact i64 %12, 8
  ret i64 %13
}

; Function Attrs: mustprogress nounwind uwtable
define available_externally noundef ptr @_ZNKSt7__cxx1112basic_stringIcSt11char_traitsIcESaIcEE7_M_dataEv(ptr noundef nonnull align 8 dereferenceable(32) %0) #3 align 2 {
  %2 = alloca ptr, align 8
  store ptr %0, ptr %2, align 8, !tbaa !29
  %3 = load ptr, ptr %2, align 8
  %4 = getelementptr inbounds nuw %"class.std::__cxx11::basic_string", ptr %3, i32 0, i32 0
  %5 = getelementptr inbounds nuw %"struct.std::__cxx11::basic_string<char>::_Alloc_hider", ptr %4, i32 0, i32 0
  %6 = load ptr, ptr %5, align 8, !tbaa !494
  ret ptr %6
}

; Function Attrs: mustprogress uwtable
define noundef i32 @_ZNK7rocksdb25WriteBatchEntryComparator10CompareKeyEjRKNS_5SliceES3_(ptr noundef nonnull align 8 dereferenceable(40) %0, i32 noundef %1, ptr noundef nonnull align 8 dereferenceable(16) %2, ptr noundef nonnull align 8 dereferenceable(16) %3) #5 align 2 {
  %5 = alloca i32, align 4
  %6 = alloca ptr, align 8
  %7 = alloca i32, align 4
  %8 = alloca ptr, align 8
  %9 = alloca ptr, align 8
  store ptr %0, ptr %6, align 8, !tbaa !262
  store i32 %1, ptr %7, align 4, !tbaa !174
  store ptr %2, ptr %8, align 8, !tbaa !10
  store ptr %3, ptr %9, align 8, !tbaa !10
  %10 = load ptr, ptr %6, align 8
  %11 = load i32, ptr %7, align 4, !tbaa !174
  %12 = zext i32 %11 to i64
  %13 = getelementptr inbounds nuw %"class.rocksdb::WriteBatchEntryComparator", ptr %10, i32 0, i32 1
  %14 = call noundef i64 @_ZNKSt6vectorIPKN7rocksdb10ComparatorESaIS3_EE4sizeEv(ptr noundef nonnull align 8 dereferenceable(24) %13) #4
  %15 = icmp ult i64 %12, %14
  br i1 %15, label %16, label %35

16:                                               ; preds = %4
  %17 = getelementptr inbounds nuw %"class.rocksdb::WriteBatchEntryComparator", ptr %10, i32 0, i32 1
  %18 = load i32, ptr %7, align 4, !tbaa !174
  %19 = zext i32 %18 to i64
  %20 = call noundef nonnull align 8 dereferenceable(8) ptr @_ZNKSt6vectorIPKN7rocksdb10ComparatorESaIS3_EEixEm(ptr noundef nonnull align 8 dereferenceable(24) %17, i64 noundef %19) #4
  %21 = load ptr, ptr %20, align 8, !tbaa !60
  %22 = icmp ne ptr %21, null
  br i1 %22, label %23, label %35

23:                                               ; preds = %16
  %24 = getelementptr inbounds nuw %"class.rocksdb::WriteBatchEntryComparator", ptr %10, i32 0, i32 1
  %25 = load i32, ptr %7, align 4, !tbaa !174
  %26 = zext i32 %25 to i64
  %27 = call noundef nonnull align 8 dereferenceable(8) ptr @_ZNKSt6vectorIPKN7rocksdb10ComparatorESaIS3_EEixEm(ptr noundef nonnull align 8 dereferenceable(24) %24, i64 noundef %26) #4
  %28 = load ptr, ptr %27, align 8, !tbaa !60
  %29 = load ptr, ptr %8, align 8, !tbaa !10
  %30 = load ptr, ptr %9, align 8, !tbaa !10
  %31 = load ptr, ptr %28, align 8, !tbaa !64
  %32 = getelementptr inbounds ptr, ptr %31, i64 29
  %33 = load ptr, ptr %32, align 8
  %34 = call noundef i32 %33(ptr noundef nonnull align 8 dereferenceable(48) %28, ptr noundef nonnull align 8 dereferenceable(16) %29, i1 noundef zeroext false, ptr noundef nonnull align 8 dereferenceable(16) %30, i1 noundef zeroext false)
  store i32 %34, ptr %5, align 4
  br label %44

35:                                               ; preds = %16, %4
  %36 = getelementptr inbounds nuw %"class.rocksdb::WriteBatchEntryComparator", ptr %10, i32 0, i32 0
  %37 = load ptr, ptr %36, align 8, !tbaa !263
  %38 = load ptr, ptr %8, align 8, !tbaa !10
  %39 = load ptr, ptr %9, align 8, !tbaa !10
  %40 = load ptr, ptr %37, align 8, !tbaa !64
  %41 = getelementptr inbounds ptr, ptr %40, i64 29
  %42 = load ptr, ptr %41, align 8
  %43 = call noundef i32 %42(ptr noundef nonnull align 8 dereferenceable(48) %37, ptr noundef nonnull align 8 dereferenceable(16) %38, i1 noundef zeroext false, ptr noundef nonnull align 8 dereferenceable(16) %39, i1 noundef zeroext false)
  store i32 %43, ptr %5, align 4
  br label %44

44:                                               ; preds = %35, %23
  %45 = load i32, ptr %5, align 4
  ret i32 %45
}

; Function Attrs: mustprogress nounwind uwtable
define linkonce_odr void @_ZN7rocksdb5SliceC2EPKcm(ptr noundef nonnull align 8 dereferenceable(16) %0, ptr noundef %1, i64 noundef %2) unnamed_addr #3 comdat align 2 {
  %4 = alloca ptr, align 8
  %5 = alloca ptr, align 8
  %6 = alloca i64, align 8
  store ptr %0, ptr %4, align 8, !tbaa !10
  store ptr %1, ptr %5, align 8, !tbaa !31
  store i64 %2, ptr %6, align 8, !tbaa !4
  %7 = load ptr, ptr %4, align 8
  %8 = getelementptr inbounds nuw %"class.rocksdb::Slice", ptr %7, i32 0, i32 0
  %9 = load ptr, ptr %5, align 8, !tbaa !31
  store ptr %9, ptr %8, align 8, !tbaa !13
  %10 = getelementptr inbounds nuw %"class.rocksdb::Slice", ptr %7, i32 0, i32 1
  %11 = load i64, ptr %6, align 8, !tbaa !4
  store i64 %11, ptr %10, align 8, !tbaa !16
  ret void
}

; Function Attrs: mustprogress nounwind uwtable
define available_externally noundef ptr @_ZNKSt7__cxx1112basic_stringIcSt11char_traitsIcESaIcEE4dataEv(ptr noundef nonnull align 8 dereferenceable(32) %0) #3 align 2 {
  %2 = alloca ptr, align 8
  store ptr %0, ptr %2, align 8, !tbaa !29
  %3 = load ptr, ptr %2, align 8
  %4 = call noundef ptr @_ZNKSt7__cxx1112basic_stringIcSt11char_traitsIcESaIcEE7_M_dataEv(ptr noundef nonnull align 8 dereferenceable(32) %3)
  ret ptr %4
}

; Function Attrs: mustprogress nounwind uwtable
define linkonce_odr noundef nonnull align 8 dereferenceable(32) ptr @_ZNK7rocksdb10WriteBatch4DataB5cxx11Ev(ptr noundef nonnull align 8 dereferenceable(160) %0) #3 comdat align 2 {
  %2 = alloca ptr, align 8
  store ptr %0, ptr %2, align 8, !tbaa !271
  %3 = load ptr, ptr %2, align 8
  %4 = getelementptr inbounds nuw %"class.rocksdb::WriteBatch", ptr %3, i32 0, i32 12
  ret ptr %4
}

; Function Attrs: mustprogress nounwind uwtable
define linkonce_odr void @_ZN7rocksdb5SliceC2Ev(ptr noundef nonnull align 8 dereferenceable(16) %0) unnamed_addr #3 comdat align 2 {
  %2 = alloca ptr, align 8
  store ptr %0, ptr %2, align 8, !tbaa !10
  %3 = load ptr, ptr %2, align 8
  %4 = getelementptr inbounds nuw %"class.rocksdb::Slice", ptr %3, i32 0, i32 0
  store ptr @.str, ptr %4, align 8, !tbaa !13
  %5 = getelementptr inbounds nuw %"class.rocksdb::Slice", ptr %3, i32 0, i32 1
  store i64 0, ptr %5, align 8, !tbaa !16
  ret void
}

; Function Attrs: mustprogress nounwind uwtable
define linkonce_odr noundef zeroext i1 @_ZNK7rocksdb20WriteBatchIndexEntry12is_min_in_cfEv(ptr noundef nonnull align 8 dereferenceable(48) %0) #3 comdat align 2 {
  %2 = alloca ptr, align 8
  store ptr %0, ptr %2, align 8, !tbaa !166
  %3 = load ptr, ptr %2, align 8
  %4 = getelementptr inbounds nuw %"struct.rocksdb::WriteBatchIndexEntry", ptr %3, i32 0, i32 6
  %5 = load i64, ptr %4, align 8, !tbaa !278
  %6 = icmp eq i64 %5, -1
  ret i1 %6
}

; Function Attrs: mustprogress uwtable
define noundef i32 @_ZNK7rocksdb25WriteBatchEntryComparatorclEPKNS_20WriteBatchIndexEntryES3_(ptr noundef nonnull align 8 dereferenceable(40) %0, ptr noundef %1, ptr noundef %2) #5 align 2 {
  %4 = alloca i32, align 4
  %5 = alloca ptr, align 8
  %6 = alloca ptr, align 8
  %7 = alloca ptr, align 8
  %8 = alloca %"class.rocksdb::Slice", align 8
  %9 = alloca %"class.rocksdb::Slice", align 8
  %10 = alloca %"class.rocksdb::Slice", align 8
  %11 = alloca %"class.rocksdb::Slice", align 8
  %12 = alloca i32, align 4
  %13 = alloca i32, align 4
  store ptr %0, ptr %5, align 8, !tbaa !262
  store ptr %1, ptr %6, align 8, !tbaa !166
  store ptr %2, ptr %7, align 8, !tbaa !166
  %14 = load ptr, ptr %5, align 8
  %15 = load ptr, ptr %6, align 8, !tbaa !166
  %16 = getelementptr inbounds nuw %"struct.rocksdb::WriteBatchIndexEntry", ptr %15, i32 0, i32 1
  %17 = load i32, ptr %16, align 8, !tbaa !274
  %18 = load ptr, ptr %7, align 8, !tbaa !166
  %19 = getelementptr inbounds nuw %"struct.rocksdb::WriteBatchIndexEntry", ptr %18, i32 0, i32 1
  %20 = load i32, ptr %19, align 8, !tbaa !274
  %21 = icmp ugt i32 %17, %20
  br i1 %21, label %22, label %23

22:                                               ; preds = %3
  store i32 1, ptr %4, align 4
  br label %115

23:                                               ; preds = %3
  %24 = load ptr, ptr %6, align 8, !tbaa !166
  %25 = getelementptr inbounds nuw %"struct.rocksdb::WriteBatchIndexEntry", ptr %24, i32 0, i32 1
  %26 = load i32, ptr %25, align 8, !tbaa !274
  %27 = load ptr, ptr %7, align 8, !tbaa !166
  %28 = getelementptr inbounds nuw %"struct.rocksdb::WriteBatchIndexEntry", ptr %27, i32 0, i32 1
  %29 = load i32, ptr %28, align 8, !tbaa !274
  %30 = icmp ult i32 %26, %29
  br i1 %30, label %31, label %32

31:                                               ; preds = %23
  store i32 -1, ptr %4, align 4
  br label %115

32:                                               ; preds = %23
  br label %33

33:                                               ; preds = %32
  %34 = load ptr, ptr %6, align 8, !tbaa !166
  %35 = call noundef zeroext i1 @_ZNK7rocksdb20WriteBatchIndexEntry12is_min_in_cfEv(ptr noundef nonnull align 8 dereferenceable(48) %34)
  br i1 %35, label %36, label %37

36:                                               ; preds = %33
  store i32 -1, ptr %4, align 4
  br label %115

37:                                               ; preds = %33
  %38 = load ptr, ptr %7, align 8, !tbaa !166
  %39 = call noundef zeroext i1 @_ZNK7rocksdb20WriteBatchIndexEntry12is_min_in_cfEv(ptr noundef nonnull align 8 dereferenceable(48) %38)
  br i1 %39, label %40, label %41

40:                                               ; preds = %37
  store i32 1, ptr %4, align 4
  br label %115

41:                                               ; preds = %37
  br label %42

42:                                               ; preds = %41
  call void @llvm.lifetime.start.p0(i64 16, ptr %8) #4
  call void @_ZN7rocksdb5SliceC2Ev(ptr noundef nonnull align 8 dereferenceable(16) %8)
  call void @llvm.lifetime.start.p0(i64 16, ptr %9) #4
  call void @_ZN7rocksdb5SliceC2Ev(ptr noundef nonnull align 8 dereferenceable(16) %9)
  %43 = load ptr, ptr %6, align 8, !tbaa !166
  %44 = getelementptr inbounds nuw %"struct.rocksdb::WriteBatchIndexEntry", ptr %43, i32 0, i32 7
  %45 = load ptr, ptr %44, align 8, !tbaa !275
  %46 = icmp eq ptr %45, null
  br i1 %46, label %47, label %59

47:                                               ; preds = %42
  call void @llvm.lifetime.start.p0(i64 16, ptr %10) #4
  %48 = getelementptr inbounds nuw %"class.rocksdb::WriteBatchEntryComparator", ptr %14, i32 0, i32 2
  %49 = load ptr, ptr %48, align 8, !tbaa !276
  %50 = call noundef nonnull align 8 dereferenceable(32) ptr @_ZNK7rocksdb10WriteBatch4DataB5cxx11Ev(ptr noundef nonnull align 8 dereferenceable(160) %49)
  %51 = call noundef ptr @_ZNKSt7__cxx1112basic_stringIcSt11char_traitsIcESaIcEE4dataEv(ptr noundef nonnull align 8 dereferenceable(32) %50) #4
  %52 = load ptr, ptr %6, align 8, !tbaa !166
  %53 = getelementptr inbounds nuw %"struct.rocksdb::WriteBatchIndexEntry", ptr %52, i32 0, i32 5
  %54 = load i64, ptr %53, align 8, !tbaa !277
  %55 = getelementptr inbounds nuw i8, ptr %51, i64 %54
  %56 = load ptr, ptr %6, align 8, !tbaa !166
  %57 = getelementptr inbounds nuw %"struct.rocksdb::WriteBatchIndexEntry", ptr %56, i32 0, i32 6
  %58 = load i64, ptr %57, align 8, !tbaa !278
  call void @_ZN7rocksdb5SliceC2EPKcm(ptr noundef nonnull align 8 dereferenceable(16) %10, ptr noundef %55, i64 noundef %58)
  call void @llvm.memcpy.p0.p0.i64(ptr align 8 %8, ptr align 8 %10, i64 16, i1 false), !tbaa.struct !193
  call void @llvm.lifetime.end.p0(i64 16, ptr %10) #4
  br label %63

59:                                               ; preds = %42
  %60 = load ptr, ptr %6, align 8, !tbaa !166
  %61 = getelementptr inbounds nuw %"struct.rocksdb::WriteBatchIndexEntry", ptr %60, i32 0, i32 7
  %62 = load ptr, ptr %61, align 8, !tbaa !275
  call void @llvm.memcpy.p0.p0.i64(ptr align 8 %8, ptr align 8 %62, i64 16, i1 false), !tbaa.struct !193
  br label %63

63:                                               ; preds = %59, %47
  %64 = load ptr, ptr %7, align 8, !tbaa !166
  %65 = getelementptr inbounds nuw %"struct.rocksdb::WriteBatchIndexEntry", ptr %64, i32 0, i32 7
  %66 = load ptr, ptr %65, align 8, !tbaa !275
  %67 = icmp eq ptr %66, null
  br i1 %67, label %68, label %80

68:                                               ; preds = %63
  call void @llvm.lifetime.start.p0(i64 16, ptr %11) #4
  %69 = getelementptr inbounds nuw %"class.rocksdb::WriteBatchEntryComparator", ptr %14, i32 0, i32 2
  %70 = load ptr, ptr %69, align 8, !tbaa !276
  %71 = call noundef nonnull align 8 dereferenceable(32) ptr @_ZNK7rocksdb10WriteBatch4DataB5cxx11Ev(ptr noundef nonnull align 8 dereferenceable(160) %70)
  %72 = call noundef ptr @_ZNKSt7__cxx1112basic_stringIcSt11char_traitsIcESaIcEE4dataEv(ptr noundef nonnull align 8 dereferenceable(32) %71) #4
  %73 = load ptr, ptr %7, align 8, !tbaa !166
  %74 = getelementptr inbounds nuw %"struct.rocksdb::WriteBatchIndexEntry", ptr %73, i32 0, i32 5
  %75 = load i64, ptr %74, align 8, !tbaa !277
  %76 = getelementptr inbounds nuw i8, ptr %72, i64 %75
  %77 = load ptr, ptr %7, align 8, !tbaa !166
  %78 = getelementptr inbounds nuw %"struct.rocksdb::WriteBatchIndexEntry", ptr %77, i32 0, i32 6
  %79 = load i64, ptr %78, align 8, !tbaa !278
  call void @_ZN7rocksdb5SliceC2EPKcm(ptr noundef nonnull align 8 dereferenceable(16) %11, ptr noundef %76, i64 noundef %79)
  call void @llvm.memcpy.p0.p0.i64(ptr align 8 %9, ptr align 8 %11, i64 16, i1 false), !tbaa.struct !193
  call void @llvm.lifetime.end.p0(i64 16, ptr %11) #4
  br label %84

80:                                               ; preds = %63
  %81 = load ptr, ptr %7, align 8, !tbaa !166
  %82 = getelementptr inbounds nuw %"struct.rocksdb::WriteBatchIndexEntry", ptr %81, i32 0, i32 7
  %83 = load ptr, ptr %82, align 8, !tbaa !275
  call void @llvm.memcpy.p0.p0.i64(ptr align 8 %9, ptr align 8 %83, i64 16, i1 false), !tbaa.struct !193
  br label %84

84:                                               ; preds = %80, %68
  call void @llvm.lifetime.start.p0(i64 4, ptr %12) #4
  %85 = load ptr, ptr %6, align 8, !tbaa !166
  %86 = getelementptr inbounds nuw %"struct.rocksdb::WriteBatchIndexEntry", ptr %85, i32 0, i32 1
  %87 = load i32, ptr %86, align 8, !tbaa !274
  %88 = call noundef i32 @_ZNK7rocksdb25WriteBatchEntryComparator10CompareKeyEjRKNS_5SliceES3_(ptr noundef nonnull align 8 dereferenceable(40) %14, i32 noundef %87, ptr noundef nonnull align 8 dereferenceable(16) %8, ptr noundef nonnull align 8 dereferenceable(16) %9)
  store i32 %88, ptr %12, align 4, !tbaa !174
  %89 = load i32, ptr %12, align 4, !tbaa !174
  %90 = icmp ne i32 %89, 0
  br i1 %90, label %91, label %93

91:                                               ; preds = %84
  %92 = load i32, ptr %12, align 4, !tbaa !174
  store i32 %92, ptr %4, align 4
  store i32 1, ptr %13, align 4
  br label %114

93:                                               ; preds = %84
  %94 = load ptr, ptr %6, align 8, !tbaa !166
  %95 = getelementptr inbounds nuw %"struct.rocksdb::WriteBatchIndexEntry", ptr %94, i32 0, i32 0
  %96 = load i64, ptr %95, align 8, !tbaa !190
  %97 = load ptr, ptr %7, align 8, !tbaa !166
  %98 = getelementptr inbounds nuw %"struct.rocksdb::WriteBatchIndexEntry", ptr %97, i32 0, i32 0
  %99 = load i64, ptr %98, align 8, !tbaa !190
  %100 = icmp ult i64 %96, %99
  br i1 %100, label %101, label %102

101:                                              ; preds = %93
  store i32 1, ptr %4, align 4
  store i32 1, ptr %13, align 4
  br label %114

102:                                              ; preds = %93
  %103 = load ptr, ptr %6, align 8, !tbaa !166
  %104 = getelementptr inbounds nuw %"struct.rocksdb::WriteBatchIndexEntry", ptr %103, i32 0, i32 0
  %105 = load i64, ptr %104, align 8, !tbaa !190
  %106 = load ptr, ptr %7, align 8, !tbaa !166
  %107 = getelementptr inbounds nuw %"struct.rocksdb::WriteBatchIndexEntry", ptr %106, i32 0, i32 0
  %108 = load i64, ptr %107, align 8, !tbaa !190
  %109 = icmp ugt i64 %105, %108
  br i1 %109, label %110, label %111

110:                                              ; preds = %102
  store i32 -1, ptr %4, align 4
  store i32 1, ptr %13, align 4
  br label %114

111:                                              ; preds = %102
  br label %112

112:                                              ; preds = %111
  br label %113

113:                                              ; preds = %112
  store i32 0, ptr %4, align 4
  store i32 1, ptr %13, align 4
  br label %114

114:                                              ; preds = %113, %110, %101, %91
  call void @llvm.lifetime.end.p0(i64 4, ptr %12) #4
  call void @llvm.lifetime.end.p0(i64 16, ptr %9) #4
  call void @llvm.lifetime.end.p0(i64 16, ptr %8) #4
  br label %115

115:                                              ; preds = %114, %40, %36, %31, %22
  %116 = load i32, ptr %4, align 4
  ret i32 %116
}