; Function Attrs: mustprogress uwtable
define noundef i32 @_ZNK7rocksdb25WriteBatchEntryComparatorclEPKNS_20WriteBatchIndexEntryES3_(ptr noundef nonnull readonly align 8 captures(none) dereferenceable(40) %0, ptr noundef readonly captures(none) %1, ptr noundef readonly captures(none) %2) local_unnamed_addr #4 align 2 {
  %4 = alloca %"class.rocksdb::Slice", align 8
  %5 = alloca %"class.rocksdb::Slice", align 8
  %6 = getelementptr inbounds nuw i8, ptr %1, i64 8
  %7 = load i32, ptr %6, align 8, !tbaa !132
  %8 = getelementptr inbounds nuw i8, ptr %2, i64 8
  %9 = load i32, ptr %8, align 8, !tbaa !132
  %10 = icmp ugt i32 %7, %9
  br i1 %10, label %76, label %11

11:                                               ; preds = %3
  %12 = icmp ult i32 %7, %9
  br i1 %12, label %76, label %13

13:                                               ; preds = %11
  %14 = getelementptr inbounds nuw i8, ptr %1, i64 32
  %15 = load i64, ptr %14, align 8, !tbaa !143
  %16 = icmp eq i64 %15, -1
  br i1 %16, label %76, label %17

17:                                               ; preds = %13
  %18 = getelementptr inbounds nuw i8, ptr %2, i64 32
  %19 = load i64, ptr %18, align 8, !tbaa !143
  %20 = icmp eq i64 %19, -1
  br i1 %20, label %76, label %21

21:                                               ; preds = %17
  call void @llvm.lifetime.start.p0(i64 16, ptr nonnull %4) #25
  call void @llvm.lifetime.start.p0(i64 16, ptr nonnull %5) #25
  %22 = getelementptr inbounds nuw i8, ptr %5, i64 8
  %23 = getelementptr inbounds nuw i8, ptr %1, i64 40
  %24 = load ptr, ptr %23, align 8, !tbaa !140
  %25 = icmp eq ptr %24, null
  br i1 %25, label %26, label %35

26:                                               ; preds = %21
  %27 = getelementptr inbounds nuw i8, ptr %4, i64 8
  %28 = getelementptr inbounds nuw i8, ptr %0, i64 32
  %29 = load ptr, ptr %28, align 8, !tbaa !312
  %30 = getelementptr inbounds nuw i8, ptr %29, i64 128
  %31 = load ptr, ptr %30, align 8, !tbaa !11
  %32 = getelementptr inbounds nuw i8, ptr %1, i64 24
  %33 = load i64, ptr %32, align 8, !tbaa !142
  %34 = getelementptr inbounds nuw i8, ptr %31, i64 %33
  store ptr %34, ptr %4, align 8, !tbaa !118
  store i64 %15, ptr %27, align 8, !tbaa !151
  br label %36

35:                                               ; preds = %21
  call void @llvm.memcpy.p0.p0.i64(ptr noundef nonnull align 8 dereferenceable(16) %4, ptr noundef nonnull align 8 dereferenceable(16) %24, i64 16, i1 false), !tbaa.struct !201
  br label %36

36:                                               ; preds = %35, %26
  %37 = getelementptr inbounds nuw i8, ptr %2, i64 40
  %38 = load ptr, ptr %37, align 8, !tbaa !140
  %39 = icmp eq ptr %38, null
  br i1 %39, label %40, label %48

40:                                               ; preds = %36
  %41 = getelementptr inbounds nuw i8, ptr %0, i64 32
  %42 = load ptr, ptr %41, align 8, !tbaa !312
  %43 = getelementptr inbounds nuw i8, ptr %42, i64 128
  %44 = load ptr, ptr %43, align 8, !tbaa !11
  %45 = getelementptr inbounds nuw i8, ptr %2, i64 24
  %46 = load i64, ptr %45, align 8, !tbaa !142
  %47 = getelementptr inbounds nuw i8, ptr %44, i64 %46
  store ptr %47, ptr %5, align 8, !tbaa !118
  store i64 %19, ptr %22, align 8, !tbaa !151
  br label %49

48:                                               ; preds = %36
  call void @llvm.memcpy.p0.p0.i64(ptr noundef nonnull align 8 dereferenceable(16) %5, ptr noundef nonnull align 8 dereferenceable(16) %38, i64 16, i1 false), !tbaa.struct !201
  br label %49

49:                                               ; preds = %48, %40
  %50 = zext i32 %7 to i64
  %51 = getelementptr inbounds nuw i8, ptr %0, i64 8
  %52 = getelementptr inbounds nuw i8, ptr %0, i64 16
  %53 = load ptr, ptr %52, align 8, !tbaa !165
  %54 = load ptr, ptr %51, align 8, !tbaa !168
  %55 = ptrtoint ptr %53 to i64
  %56 = ptrtoint ptr %54 to i64
  %57 = sub i64 %55, %56
  %58 = ashr exact i64 %57, 3
  %59 = icmp ugt i64 %58, %50
  br i1 %59, label %60, label %63

60:                                               ; preds = %49
  %61 = getelementptr inbounds nuw ptr, ptr %54, i64 %50
  %62 = load ptr, ptr %61, align 8, !tbaa !169
  %.not.i = icmp eq ptr %62, null
  br i1 %.not.i, label %63, label %_ZNK7rocksdb25WriteBatchEntryComparator10CompareKeyEjRKNS_5SliceES3_.exit

63:                                               ; preds = %60, %49
  %64 = load ptr, ptr %0, align 8, !tbaa !303
  br label %_ZNK7rocksdb25WriteBatchEntryComparator10CompareKeyEjRKNS_5SliceES3_.exit

_ZNK7rocksdb25WriteBatchEntryComparator10CompareKeyEjRKNS_5SliceES3_.exit: ; preds = %60, %63
  %.sink12.i = phi ptr [ %64, %63 ], [ %62, %60 ]
  %65 = load ptr, ptr %.sink12.i, align 8, !tbaa !18
  %66 = getelementptr inbounds nuw i8, ptr %65, i64 232
  %67 = load ptr, ptr %66, align 8
  %68 = call noundef i32 %67(ptr noundef nonnull align 8 dereferenceable(48) %.sink12.i, ptr noundef nonnull align 8 dereferenceable(16) %4, i1 noundef zeroext false, ptr noundef nonnull align 8 dereferenceable(16) %5, i1 noundef zeroext false)
  %.not = icmp eq i32 %68, 0
  br i1 %.not, label %69, label %75

69:                                               ; preds = %_ZNK7rocksdb25WriteBatchEntryComparator10CompareKeyEjRKNS_5SliceES3_.exit
  %70 = load i64, ptr %1, align 8, !tbaa !136
  %71 = load i64, ptr %2, align 8, !tbaa !136
  %72 = icmp ult i64 %70, %71
  br i1 %72, label %75, label %73

73:                                               ; preds = %69
  %74 = icmp ugt i64 %70, %71
  %. = sext i1 %74 to i32
  br label %75

75:                                               ; preds = %73, %69, %_ZNK7rocksdb25WriteBatchEntryComparator10CompareKeyEjRKNS_5SliceES3_.exit
  %.1 = phi i32 [ %68, %_ZNK7rocksdb25WriteBatchEntryComparator10CompareKeyEjRKNS_5SliceES3_.exit ], [ 1, %69 ], [ %., %73 ]
  call void @llvm.lifetime.end.p0(i64 16, ptr nonnull %5) #25
  call void @llvm.lifetime.end.p0(i64 16, ptr nonnull %4) #25
  br label %76

76:                                               ; preds = %17, %13, %11, %3, %75
  %.0 = phi i32 [ %.1, %75 ], [ 1, %3 ], [ -1, %11 ], [ -1, %13 ], [ 1, %17 ]
  ret i32 %.0
}